; ModuleID = '31/1624.c'
source_filename = "31/1624.c"
target datalayout = "e-m:e-p270:32:32-p271:32:32-p272:64:64-i64:64-f80:128-n8:16:32:64-S128"
target triple = "x86_64-pc-linux-gnu"

%struct.student = type { [10 x i8], [20 x i8], i8, i32, [20 x i8], [50 x i8], %struct.student* }

@.str = private unnamed_addr constant [3 x i8] c"%s\00", align 1
@.str.1 = private unnamed_addr constant [15 x i8] c"%s %c %d %s %s\00", align 1
@.str.2 = private unnamed_addr constant [19 x i8] c"%s %s %c %d %s %s\0A\00", align 1

; Function Attrs: noinline nounwind uwtable
define dso_local void @main() #0 {
  %1 = alloca %struct.student*, align 8
  %2 = alloca %struct.student*, align 8
  %3 = alloca %struct.student*, align 8
  %4 = alloca i32, align 4
  %5 = alloca i32, align 4
  %6 = call noalias i8* @calloc(i64 1000, i64 120) #3
  %7 = bitcast i8* %6 to %struct.student*
  store %struct.student* %7, %struct.student** %1, align 8
  store i32 0, i32* %4, align 4
  br label %8

8:                                                ; preds = %56, %0
  %9 = load %struct.student*, %struct.student** %1, align 8
  %10 = load i32, i32* %4, align 4
  %11 = sext i32 %10 to i64
  %12 = getelementptr inbounds %struct.student, %struct.student* %9, i64 %11
  %13 = getelementptr inbounds %struct.student, %struct.student* %12, i32 0, i32 0
  %14 = getelementptr inbounds [10 x i8], [10 x i8]* %13, i64 0, i64 0
  %15 = call i32 (i8*, ...) @__isoc99_scanf(i8* getelementptr inbounds ([3 x i8], [3 x i8]* @.str, i64 0, i64 0), i8* %14)
  %16 = load %struct.student*, %struct.student** %1, align 8
  %17 = load i32, i32* %4, align 4
  %18 = sext i32 %17 to i64
  %19 = getelementptr inbounds %struct.student, %struct.student* %16, i64 %18
  %20 = getelementptr inbounds %struct.student, %struct.student* %19, i32 0, i32 0
  %21 = getelementptr inbounds [10 x i8], [10 x i8]* %20, i64 0, i64 0
  %22 = load i8, i8* %21, align 8
  %23 = sext i8 %22 to i32
  %24 = icmp eq i32 %23, 101
  br i1 %24, label %25, label %26

25:                                               ; preds = %8
  br label %59

26:                                               ; preds = %8
  %27 = load %struct.student*, %struct.student** %1, align 8
  %28 = load i32, i32* %4, align 4
  %29 = sext i32 %28 to i64
  %30 = getelementptr inbounds %struct.student, %struct.student* %27, i64 %29
  %31 = getelementptr inbounds %struct.student, %struct.student* %30, i32 0, i32 1
  %32 = getelementptr inbounds [20 x i8], [20 x i8]* %31, i64 0, i64 0
  %33 = load %struct.student*, %struct.student** %1, align 8
  %34 = load i32, i32* %4, align 4
  %35 = sext i32 %34 to i64
  %36 = getelementptr inbounds %struct.student, %struct.student* %33, i64 %35
  %37 = getelementptr inbounds %struct.student, %struct.student* %36, i32 0, i32 2
  %38 = load %struct.student*, %struct.student** %1, align 8
  %39 = load i32, i32* %4, align 4
  %40 = sext i32 %39 to i64
  %41 = getelementptr inbounds %struct.student, %struct.student* %38, i64 %40
  %42 = getelementptr inbounds %struct.student, %struct.student* %41, i32 0, i32 3
  %43 = load %struct.student*, %struct.student** %1, align 8
  %44 = load i32, i32* %4, align 4
  %45 = sext i32 %44 to i64
  %46 = getelementptr inbounds %struct.student, %struct.student* %43, i64 %45
  %47 = getelementptr inbounds %struct.student, %struct.student* %46, i32 0, i32 4
  %48 = getelementptr inbounds [20 x i8], [20 x i8]* %47, i64 0, i64 0
  %49 = load %struct.student*, %struct.student** %1, align 8
  %50 = load i32, i32* %4, align 4
  %51 = sext i32 %50 to i64
  %52 = getelementptr inbounds %struct.student, %struct.student* %49, i64 %51
  %53 = getelementptr inbounds %struct.student, %struct.student* %52, i32 0, i32 5
  %54 = getelementptr inbounds [50 x i8], [50 x i8]* %53, i64 0, i64 0
  %55 = call i32 (i8*, ...) @__isoc99_scanf(i8* getelementptr inbounds ([15 x i8], [15 x i8]* @.str.1, i64 0, i64 0), i8* %32, i8* %37, i32* %42, i8* %48, i8* %54)
  br label %56

56:                                               ; preds = %26
  %57 = load i32, i32* %4, align 4
  %58 = add nsw i32 %57, 1
  store i32 %58, i32* %4, align 4
  br label %8

59:                                               ; preds = %25
  %60 = load i32, i32* %4, align 4
  %61 = sub nsw i32 %60, 1
  store i32 %61, i32* %5, align 4
  %62 = load %struct.student*, %struct.student** %1, align 8
  %63 = load i32, i32* %5, align 4
  %64 = sext i32 %63 to i64
  %65 = getelementptr inbounds %struct.student, %struct.student* %62, i64 %64
  store %struct.student* %65, %struct.student** %2, align 8
  %66 = load i32, i32* %5, align 4
  store i32 %66, i32* %4, align 4
  br label %67

67:                                               ; preds = %81, %59
  %68 = load i32, i32* %4, align 4
  %69 = icmp sge i32 %68, 1
  br i1 %69, label %70, label %84

70:                                               ; preds = %67
  %71 = load %struct.student*, %struct.student** %1, align 8
  %72 = load i32, i32* %4, align 4
  %73 = sub nsw i32 %72, 1
  %74 = sext i32 %73 to i64
  %75 = getelementptr inbounds %struct.student, %struct.student* %71, i64 %74
  %76 = load %struct.student*, %struct.student** %1, align 8
  %77 = load i32, i32* %4, align 4
  %78 = sext i32 %77 to i64
  %79 = getelementptr inbounds %struct.student, %struct.student* %76, i64 %78
  %80 = getelementptr inbounds %struct.student, %struct.student* %79, i32 0, i32 6
  store %struct.student* %75, %struct.student** %80, align 8
  br label %81

81:                                               ; preds = %70
  %82 = load i32, i32* %4, align 4
  %83 = add nsw i32 %82, -1
  store i32 %83, i32* %4, align 4
  br label %67

84:                                               ; preds = %67
  %85 = load %struct.student*, %struct.student** %1, align 8
  %86 = getelementptr inbounds %struct.student, %struct.student* %85, i64 0
  %87 = getelementptr inbounds %struct.student, %struct.student* %86, i32 0, i32 6
  store %struct.student* null, %struct.student** %87, align 8
  %88 = load %struct.student*, %struct.student** %2, align 8
  store %struct.student* %88, %struct.student** %3, align 8
  br label %89

89:                                               ; preds = %113, %84
  %90 = load %struct.student*, %struct.student** %3, align 8
  %91 = getelementptr inbounds %struct.student, %struct.student* %90, i32 0, i32 0
  %92 = getelementptr inbounds [10 x i8], [10 x i8]* %91, i64 0, i64 0
  %93 = load %struct.student*, %struct.student** %3, align 8
  %94 = getelementptr inbounds %struct.student, %struct.student* %93, i32 0, i32 1
  %95 = getelementptr inbounds [20 x i8], [20 x i8]* %94, i64 0, i64 0
  %96 = load %struct.student*, %struct.student** %3, align 8
  %97 = getelementptr inbounds %struct.student, %struct.student* %96, i32 0, i32 2
  %98 = load i8, i8* %97, align 2
  %99 = sext i8 %98 to i32
  %100 = load %struct.student*, %struct.student** %3, align 8
  %101 = getelementptr inbounds %struct.student, %struct.student* %100, i32 0, i32 3
  %102 = load i32, i32* %101, align 8
  %103 = load %struct.student*, %struct.student** %3, align 8
  %104 = getelementptr inbounds %struct.student, %struct.student* %103, i32 0, i32 4
  %105 = getelementptr inbounds [20 x i8], [20 x i8]* %104, i64 0, i64 0
  %106 = load %struct.student*, %struct.student** %3, align 8
  %107 = getelementptr inbounds %struct.student, %struct.student* %106, i32 0, i32 5
  %108 = getelementptr inbounds [50 x i8], [50 x i8]* %107, i64 0, i64 0
  %109 = call i32 (i8*, ...) @printf(i8* getelementptr inbounds ([19 x i8], [19 x i8]* @.str.2, i64 0, i64 0), i8* %92, i8* %95, i32 %99, i32 %102, i8* %105, i8* %108)
  %110 = load %struct.student*, %struct.student** %3, align 8
  %111 = getelementptr inbounds %struct.student, %struct.student* %110, i32 0, i32 6
  %112 = load %struct.student*, %struct.student** %111, align 8
  store %struct.student* %112, %struct.student** %3, align 8
  br label %113

113:                                              ; preds = %89
  %114 = load %struct.student*, %struct.student** %3, align 8
  %115 = icmp ne %struct.student* %114, null
  br i1 %115, label %89, label %116

116:                                              ; preds = %113
  ret void
}

; Function Attrs: nounwind
declare dso_local noalias i8* @calloc(i64, i64) #1

declare dso_local i32 @__isoc99_scanf(i8*, ...) #2

declare dso_local i32 @printf(i8*, ...) #2


!llvm.module.flags = !{!0}
!llvm.ident = !{!1}

!0 = !{i32 1, !"wchar_size", i32 4}
!1 = !{!"clang version 10.0.0-4ubuntu1 "}
